; Function Attrs: nounwind sspstrong uwtable
define internal ptr @lazy_uniq_iter_proc(i64 noundef %0, ptr noundef %1, i64 noundef %2, i64 noundef %3) #0 {
  %5 = tail call ptr @rb_check_typeddata(i64 noundef %0, ptr noundef nonnull @proc_entry_data_type) #18
  %6 = load i64, ptr %5, align 8, !tbaa !93
  %7 = getelementptr inbounds nuw i8, ptr %1, i64 24
  %8 = tail call i64 @rb_proc_call_with_block(i64 noundef %6, i32 noundef 1, ptr noundef nonnull %7, i64 noundef 4) #18
  %9 = tail call i64 @rb_ary_entry(i64 noundef %2, i64 noundef %3) #25
  %10 = icmp eq i64 %9, 4
  br i1 %10, label %11, label %lazy_uniq_check.exit

11:                                               ; preds = %4
  %12 = tail call i64 @rb_hash_new() #18
  %13 = tail call i64 @rb_obj_hide(i64 noundef %12) #18
  tail call void @rb_ary_store(i64 noundef %2, i64 noundef %3, i64 noundef %13) #18
  br label %lazy_uniq_check.exit

lazy_uniq_check.exit:                             ; preds = %4, %11
  %.0.i = phi i64 [ %13, %11 ], [ %9, %4 ]
  %14 = tail call i32 @rb_hash_add_new_element(i64 noundef %.0.i, i64 noundef %8, i64 noundef 0) #18
  %.not = icmp eq i32 %14, 0
  %. = select i1 %.not, ptr %1, ptr null
  ret ptr %.
}